target datalayout = "e-m:e-p270:32:32-p271:32:32-p272:64:64-i64:64-i128:128-f80:128-n8:16:32:64-S128"
target triple = "x86_64-pc-linux-gnu"

%"class.datalog::udoc_relation" = type { %"class.datalog::relation_base.base", ptr, %class.union_bvec, %class.svector }
%"class.datalog::relation_base.base" = type { %"class.datalog::tr_infrastructure<datalog::relation_traits>::base_ancestor.base" }
%"class.datalog::tr_infrastructure<datalog::relation_traits>::base_ancestor.base" = type <{ ptr, ptr, %"class.datalog::relation_signature", i32 }>
%"class.datalog::relation_signature" = type { %"class.datalog::tr_infrastructure<datalog::relation_traits>::signature_base" }
%"class.datalog::tr_infrastructure<datalog::relation_traits>::signature_base" = type { %class.ptr_vector }
%class.ptr_vector = type { %class.vector }
%class.vector = type { ptr }
%class.union_bvec = type { %class.buffer }
%class.buffer = type { ptr, i32, i32, [64 x i8] }
%class.svector = type { %class.vector.0 }
%class.vector.0 = type { ptr }

; Function Attrs: mustprogress nounwind uwtable
define linkonce_odr hidden void @_ZN6bufferIP3docLb0ELj8EE5resetEv(ptr noundef nonnull align 8 dereferenceable(80) %0) #6 comdat align 2 {
  %2 = alloca ptr, align 8
  store ptr %0, ptr %2, align 8, !tbaa !568
  %3 = load ptr, ptr %2, align 8
  %4 = getelementptr inbounds nuw %class.buffer, ptr %3, i32 0, i32 1
  store i32 0, ptr %4, align 8, !tbaa !571
  ret void
}

; Function Attrs: mustprogress nounwind uwtable
define linkonce_odr hidden noundef nonnull align 8 dereferenceable(8) ptr @_ZN6bufferIP3docLb0ELj8EEixEj(ptr noundef nonnull align 8 dereferenceable(80) %0, i32 noundef %1) #6 comdat align 2 {
  %3 = alloca ptr, align 8
  %4 = alloca i32, align 4
  store ptr %0, ptr %3, align 8, !tbaa !568
  store i32 %1, ptr %4, align 4, !tbaa !16
  %5 = load ptr, ptr %3, align 8
  %6 = getelementptr inbounds nuw %class.buffer, ptr %5, i32 0, i32 0
  %7 = load ptr, ptr %6, align 8, !tbaa !570
  %8 = load i32, ptr %4, align 4, !tbaa !16
  %9 = zext i32 %8 to i64
  %10 = getelementptr inbounds nuw ptr, ptr %7, i64 %9
  ret ptr %10
}

; Function Attrs: mustprogress nounwind uwtable
define linkonce_odr hidden noundef i32 @_ZNK6bufferIP3docLb0ELj8EE4sizeEv(ptr noundef nonnull align 8 dereferenceable(80) %0) #6 comdat align 2 {
  %2 = alloca ptr, align 8
  store ptr %0, ptr %2, align 8, !tbaa !568
  %3 = load ptr, ptr %2, align 8
  %4 = getelementptr inbounds nuw %class.buffer, ptr %3, i32 0, i32 1
  %5 = load i32, ptr %4, align 8, !tbaa !571
  ret i32 %5
}

; Function Attrs: mustprogress uwtable
define linkonce_odr hidden void @_ZN10union_bvecI11doc_manager3docE5resetERS0_(ptr noundef nonnull align 8 dereferenceable(80) %0, ptr noundef nonnull align 8 dereferenceable(1080) %1) #4 comdat align 2 {
  %3 = alloca ptr, align 8
  %4 = alloca ptr, align 8
  %5 = alloca i32, align 4
  store ptr %0, ptr %3, align 8, !tbaa !27
  store ptr %1, ptr %4, align 8, !tbaa !14
  %6 = load ptr, ptr %3, align 8
  call void @llvm.lifetime.start.p0(i64 4, ptr %5) #3
  store i32 0, ptr %5, align 4, !tbaa !16
  br label %7

7:                                                ; preds = %19, %2
  %8 = load i32, ptr %5, align 4, !tbaa !16
  %9 = getelementptr inbounds nuw %class.union_bvec, ptr %6, i32 0, i32 0
  %10 = call noundef i32 @_ZNK6bufferIP3docLb0ELj8EE4sizeEv(ptr noundef nonnull align 8 dereferenceable(80) %9)
  %11 = icmp ult i32 %8, %10
  br i1 %11, label %13, label %12

12:                                               ; preds = %7
  call void @llvm.lifetime.end.p0(i64 4, ptr %5) #3
  br label %22

13:                                               ; preds = %7
  %14 = load ptr, ptr %4, align 8, !tbaa !14
  %15 = getelementptr inbounds nuw %class.union_bvec, ptr %6, i32 0, i32 0
  %16 = load i32, ptr %5, align 4, !tbaa !16
  %17 = call noundef nonnull align 8 dereferenceable(8) ptr @_ZN6bufferIP3docLb0ELj8EEixEj(ptr noundef nonnull align 8 dereferenceable(80) %15, i32 noundef %16)
  %18 = load ptr, ptr %17, align 8, !tbaa !82
  call void @_ZN11doc_manager10deallocateEP3doc(ptr noundef nonnull align 8 dereferenceable(1080) %14, ptr noundef %18)
  br label %19

19:                                               ; preds = %13
  %20 = load i32, ptr %5, align 4, !tbaa !16
  %21 = add i32 %20, 1
  store i32 %21, ptr %5, align 4, !tbaa !16
  br label %7, !llvm.loop !84

22:                                               ; preds = %12
  %23 = getelementptr inbounds nuw %class.union_bvec, ptr %6, i32 0, i32 0
  call void @_ZN6bufferIP3docLb0ELj8EE5resetEv(ptr noundef nonnull align 8 dereferenceable(80) %23)
  ret void
}

; Function Attrs: mustprogress uwtable
define hidden void @_ZN7datalog13udoc_relation5resetEv(ptr noundef nonnull align 8 dereferenceable(128) %0) unnamed_addr #4 align 2 {
  %2 = alloca ptr, align 8
  store ptr %0, ptr %2, align 8, !tbaa !3
  %3 = load ptr, ptr %2, align 8
  %4 = getelementptr inbounds nuw %"class.datalog::udoc_relation", ptr %3, i32 0, i32 2
  %5 = getelementptr inbounds nuw %"class.datalog::udoc_relation", ptr %3, i32 0, i32 1
  %6 = load ptr, ptr %5, align 8, !tbaa !71
  call void @_ZN10union_bvecI11doc_manager3docE5resetERS0_(ptr noundef nonnull align 8 dereferenceable(80) %4, ptr noundef nonnull align 8 dereferenceable(1080) %6)
  ret void
}