; Function Attrs: mustprogress uwtable
define hidden void @_ZN7datalog13udoc_relation5resetEv(ptr noundef nonnull align 8 captures(none) dereferenceable(128) %0) unnamed_addr #3 align 2 {
  %2 = getelementptr inbounds nuw i8, ptr %0, i64 40
  %3 = getelementptr inbounds nuw i8, ptr %0, i64 32
  %4 = load ptr, ptr %3, align 8, !tbaa !144
  %5 = getelementptr inbounds nuw i8, ptr %0, i64 48
  %6 = load i32, ptr %5, align 8, !tbaa !35
  %.not.i = icmp eq i32 %6, 0
  br i1 %.not.i, label %_ZN10union_bvecI11doc_manager3docE5resetERS0_.exit, label %.lr.ph.i

.lr.ph.i:                                         ; preds = %1, %.lr.ph.i
  %indvars.iv.i = phi i64 [ %indvars.iv.next.i, %.lr.ph.i ], [ 0, %1 ]
  %7 = load ptr, ptr %2, align 8, !tbaa !32
  %8 = getelementptr inbounds nuw ptr, ptr %7, i64 %indvars.iv.i
  %9 = load ptr, ptr %8, align 8, !tbaa !148
  tail call void @_ZN11doc_manager10deallocateEP3doc(ptr noundef nonnull align 8 dereferenceable(1080) %4, ptr noundef %9)
  %indvars.iv.next.i = add nuw nsw i64 %indvars.iv.i, 1
  %10 = load i32, ptr %5, align 8, !tbaa !35
  %11 = zext i32 %10 to i64
  %12 = icmp samesign ult i64 %indvars.iv.next.i, %11
  br i1 %12, label %.lr.ph.i, label %_ZN10union_bvecI11doc_manager3docE5resetERS0_.exit, !llvm.loop !150

_ZN10union_bvecI11doc_manager3docE5resetERS0_.exit: ; preds = %.lr.ph.i, %1
  store i32 0, ptr %5, align 8, !tbaa !35
  ret void
}